(dp0
S'Rockbreaker_Lens'
p1
S'SELL'
p2
sS'Grazer_Heart'
p3
S'SELL'
p4
sS'Smooth_Ancient_Charm'
p5
S'SELL'
p6
sS'Ravager_Heart'
p7
S'SELL'
p8
sS'Broadhead_Lens'
p9
S'SELL'
p10
sS'Slagshine_Glass'
p11
(S'BUY'
p12
(dp13
S'Carja_War_Bow'
p14
I2
sS'Banuk_Werak_Runner'
p15
I10
sS'REST_TRADE'
p16
I0
sI01
tp17
sS'Shell_Walker_Heart'
p18
(S'TRADE'
p19
(lp20
S'DIRTY_BASKET-small'
p21
atp22
sS'Strider_Lens'
p23
S'SELL'
p24
sS'Notched_Ancient_Charm'
p25
S'SELL'
p26
sS'Snapmaw_Heart'
p27
(S'BUY'
p28
(dp29
S'Shadow_Ropecaster'
p30
I1
sI00
tp31
sS'Sawtooth_Lens'
p32
S'SELL'
p33
sS'Stalker_Heart'
p34
(S'BUY'
p35
(dp36
S'Shadow_Stalwart_Heavy'
p37
I1
sI00
tp38
sS'Irregular_Ancient_Charm'
p39
S'SELL'
p40
sS'Reflective_Ancient_Charm'
p41
S'SELL'
p42
sS'Machine_Core-small'
p43
S'SELL'
p44
sS'Watcher_Heart'
p45
S'SELL'
p46
sS'Scrapper_Lens'
p47
S'SELL'
p48
sS'Ancient_Metal_Eye'
p49
S'SELL'
p50
sS'Bellowback_Lens'
p51
S'SELL'
p52
sS'Strider_Heart'
p53
S'SELL'
p54
sS'Desert_Glass'
p55
(S'BUY'
p56
(dp57
S'Carja_War_Bow'
p58
I5
sS'Banuk_Werak_Runner'
p59
I10
sS'REST_TRADE'
p60
I0
sI01
tp61
sS'Ancient_Sculpture'
p62
S'SELL'
p63
sS'Scrapper_Heart'
p64
S'SELL'
p65
sS'Thunderjaw_Lens'
p66
S'SELL'
p67
sS'Crystal_Braiding'
p68
(S'TRADE'
p69
(lp70
S'HUNTER_BIG_GAME_BOX'
p71
atp72
sS'Glinthawk_Lens'
p73
S'SELL'
p74
sS'Luminous_Braiding#'
p75
(lp76
S'HUNTER_SMALL_GAME_BOX'
p77
asS'Longleg_Heart'
p78
S'SELL'
p79
sS'Ravager_Lens'
p80
S'SELL'
p81
sS'Animal_Talisman_Tail'
p82
S'SELL'
p83
sS'Machine_Core-large'
p84
S'SELL'
p85
sS'Luminous_Braiding'
p86
S'SELL'
p87
sS'Longleg_Lens'
p88
S'SELL'
p89
sS'Ancient_Black_Bracelet'
p90
S'SELL'
p91
sS'Stalker_Lens'
p92
S'SELL'
p93
sS'Behemoth_Lens'
p94
S'SELL'
p95
sS'Bellowback_Heart'
p96
S'SELL'
p97
sS'Ancient_Bright_Bracelet'
p98
S'SELL'
p99
sS'Polished_Ancient_Charm'
p100
S'SELL'
p101
sS'Snapmaw_Lens'
p102
S'SELL'
p103
sS'Shell-Walker_Lens'
p104
S'SELL'
p105
sS'Desert_Glass#'
p106
(lp107
S'OUTLAW_DARK_BOX'
p108
asS'Trampler_Lens'
p109
(S'BUY'
p110
(dp111
S'Shadow_Stalwart_Medium'
p112
I1
sI00
tp113
sS'Animal_Talisman_Skull'
p114
S'SELL'
p115
sS'Thunderjaw_Heart'
p116
S'SELL'
p117
sS'Slagshine_Glass#'
p118
(lp119
S'OUTLAW_LIGHT_BOX'
p120
asS'Ancient_Neclace'
p121
S'SELL'
p122
sS'Sawtooth_Heart'
p123
S'SELL'
p124
sS'Behemoth_Heart'
p125
S'SELL'
p126
sS'Machine_Core-medium'
p127
S'SELL'
p128
sS'Broadhead_Heart'
p129
S'SELL'
p130
sS'Ancient_Toothpick'
p131
S'SELL'
p132
sS'Ancient_Chimes'
p133
S'SELL'
p134
sS'Glinthawk_Heart'
p135
S'SELL'
p136
sS'Lancehorn_Heart'
p137
S'SELL'
p138
sS'Ancient_Ring'
p139
S'SELL'
p140
sS'Shell-Walker_Heart#'
p141
(lp142
S'DIRTY_BASKET-small'
p143
asS'Ancient_Wreath'
p144
S'SELL'
p145
sS'Processed_Metal_Block'
p146
(S'TRADE'
p147
(lp148
S'SCAVENGER_LIGHT_BOX'
p149
aS'SCAVENGER_DARK_BOX'
p150
atp151
sS'Watcher_Lens'
p152
S'SELL'
p153
sS'Charger_Heart'
p154
S'SELL'
p155
sS'Stormbird_Lens'
p156
S'SELL'
p157
s.